; Function Attrs: mustprogress uwtable
define noundef zeroext i1 @_ZN10colvardeps18get_keyval_featureEP11colvarparseRKNSt7__cxx1112basic_stringIcSt11char_traitsIcESaIcEEEPKciRKbNS0_10Parse_ModeE(ptr noundef nonnull align 8 dereferenceable(120) %0, ptr noundef %1, ptr noundef nonnull align 8 dereferenceable(32) %2, ptr noundef %3, i32 noundef %4, ptr noundef nonnull align 1 dereferenceable(1) %5, i32 noundef %6) local_unnamed_addr #4 align 2 personality ptr @__gxx_personality_v0 {
  %8 = alloca %"class.std::__cxx11::basic_string", align 8
  %9 = alloca %"class.std::__cxx11::basic_string", align 8
  %10 = alloca %"class.std::__cxx11::basic_string", align 8
  %11 = alloca %"class.std::__cxx11::basic_string", align 8
  %12 = alloca i8, align 1
  %13 = load ptr, ptr %0, align 8
  %14 = getelementptr inbounds i8, ptr %13, i64 16
  %15 = load ptr, ptr %14, align 8
  %16 = tail call noundef nonnull align 8 dereferenceable(24) ptr %15(ptr noundef nonnull align 8 dereferenceable(120) %0)
  %17 = sext i32 %4 to i64
  %18 = load ptr, ptr %16, align 8
  %19 = getelementptr inbounds ptr, ptr %18, i64 %17
  %20 = load ptr, ptr %19, align 8
  %21 = getelementptr inbounds i8, ptr %20, i64 128
  %22 = load i32, ptr %21, align 8
  %23 = icmp eq i32 %22, 2
  br i1 %23, label %52, label %24

24:                                               ; preds = %7
  %25 = load ptr, ptr %0, align 8
  %26 = getelementptr inbounds i8, ptr %25, i64 16
  %27 = load ptr, ptr %26, align 8
  %28 = tail call noundef nonnull align 8 dereferenceable(24) ptr %27(ptr noundef nonnull align 8 dereferenceable(120) %0)
  %29 = load ptr, ptr %28, align 8
  %30 = getelementptr inbounds ptr, ptr %29, i64 %17
  %31 = load ptr, ptr %30, align 8
  call void @_ZStplIcSt11char_traitsIcESaIcEENSt7__cxx1112basic_stringIT_T0_T1_EEPKS5_RKS8_(ptr dead_on_unwind nonnull writable sret(%"class.std::__cxx11::basic_string") align 8 %11, ptr noundef nonnull @.str.6, ptr noundef nonnull align 8 dereferenceable(32) %31)
  %32 = invoke noundef nonnull align 8 dereferenceable(32) ptr @_ZNSt7__cxx1112basic_stringIcSt11char_traitsIcESaIcEE6appendEPKc(ptr noundef nonnull align 8 dereferenceable(32) %11, ptr noundef nonnull @.str.7)
          to label %33 unwind label %41

33:                                               ; preds = %24
  call void @_ZNSt7__cxx1112basic_stringIcSt11char_traitsIcESaIcEEC1EOS4_(ptr noundef nonnull align 8 dereferenceable(32) %10, ptr noundef nonnull align 8 dereferenceable(32) %32) #17
  %34 = getelementptr inbounds i8, ptr %0, i64 8
  %35 = invoke noundef nonnull align 8 dereferenceable(32) ptr @_ZNSt7__cxx1112basic_stringIcSt11char_traitsIcESaIcEE6appendERKS4_(ptr noundef nonnull align 8 dereferenceable(32) %10, ptr noundef nonnull align 8 dereferenceable(32) %34)
          to label %36 unwind label %43

36:                                               ; preds = %33
  call void @_ZNSt7__cxx1112basic_stringIcSt11char_traitsIcESaIcEEC1EOS4_(ptr noundef nonnull align 8 dereferenceable(32) %9, ptr noundef nonnull align 8 dereferenceable(32) %35) #17
  %37 = invoke noundef nonnull align 8 dereferenceable(32) ptr @_ZNSt7__cxx1112basic_stringIcSt11char_traitsIcESaIcEE6appendEPKc(ptr noundef nonnull align 8 dereferenceable(32) %9, ptr noundef nonnull @.str.8)
          to label %38 unwind label %45

38:                                               ; preds = %36
  call void @_ZNSt7__cxx1112basic_stringIcSt11char_traitsIcESaIcEEC1EOS4_(ptr noundef nonnull align 8 dereferenceable(32) %8, ptr noundef nonnull align 8 dereferenceable(32) %37) #17
  %39 = invoke noundef i32 @_ZN12colvarmodule5errorERKNSt7__cxx1112basic_stringIcSt11char_traitsIcESaIcEEEi(ptr noundef nonnull align 8 dereferenceable(32) %8, i32 noundef -1)
          to label %40 unwind label %47

40:                                               ; preds = %38
  call void @_ZNSt7__cxx1112basic_stringIcSt11char_traitsIcESaIcEED1Ev(ptr noundef nonnull align 8 dereferenceable(32) %8) #17
  call void @_ZNSt7__cxx1112basic_stringIcSt11char_traitsIcESaIcEED1Ev(ptr noundef nonnull align 8 dereferenceable(32) %9) #17
  call void @_ZNSt7__cxx1112basic_stringIcSt11char_traitsIcESaIcEED1Ev(ptr noundef nonnull align 8 dereferenceable(32) %10) #17
  call void @_ZNSt7__cxx1112basic_stringIcSt11char_traitsIcESaIcEED1Ev(ptr noundef nonnull align 8 dereferenceable(32) %11) #17
  br label %_ZN10colvardeps11set_enabledEib.exit

41:                                               ; preds = %24
  %42 = landingpad { ptr, i32 }
          cleanup
  br label %51

43:                                               ; preds = %33
  %44 = landingpad { ptr, i32 }
          cleanup
  br label %50

45:                                               ; preds = %36
  %46 = landingpad { ptr, i32 }
          cleanup
  br label %49

47:                                               ; preds = %38
  %48 = landingpad { ptr, i32 }
          cleanup
  call void @_ZNSt7__cxx1112basic_stringIcSt11char_traitsIcESaIcEED1Ev(ptr noundef nonnull align 8 dereferenceable(32) %8) #17
  br label %49

49:                                               ; preds = %47, %45
  %.pn = phi { ptr, i32 } [ %48, %47 ], [ %46, %45 ]
  call void @_ZNSt7__cxx1112basic_stringIcSt11char_traitsIcESaIcEED1Ev(ptr noundef nonnull align 8 dereferenceable(32) %9) #17
  br label %50

50:                                               ; preds = %49, %43
  %.pn.pn = phi { ptr, i32 } [ %.pn, %49 ], [ %44, %43 ]
  call void @_ZNSt7__cxx1112basic_stringIcSt11char_traitsIcESaIcEED1Ev(ptr noundef nonnull align 8 dereferenceable(32) %10) #17
  br label %51

51:                                               ; preds = %50, %41
  %.pn.pn.pn = phi { ptr, i32 } [ %.pn.pn, %50 ], [ %42, %41 ]
  call void @_ZNSt7__cxx1112basic_stringIcSt11char_traitsIcESaIcEED1Ev(ptr noundef nonnull align 8 dereferenceable(32) %11) #17
  resume { ptr, i32 } %.pn.pn.pn

52:                                               ; preds = %7
  %53 = call noundef zeroext i1 @_ZN11colvarparse10get_keyvalERKNSt7__cxx1112basic_stringIcSt11char_traitsIcESaIcEEEPKcRbRKbNS_10Parse_ModeE(ptr noundef nonnull align 8 dereferenceable(320) %1, ptr noundef nonnull align 8 dereferenceable(32) %2, ptr noundef %3, ptr noundef nonnull align 1 dereferenceable(1) %12, ptr noundef nonnull align 1 dereferenceable(1) %5, i32 noundef %6)
  %54 = load i8, ptr %12, align 1
  %55 = trunc i8 %54 to i1
  br i1 %55, label %56, label %58

56:                                               ; preds = %52
  %57 = call noundef i32 @_ZN10colvardeps6enableEibb(ptr noundef nonnull align 8 dereferenceable(120) %0, i32 noundef %4, i1 noundef zeroext false, i1 noundef zeroext true), !range !10
  br label %_ZN10colvardeps11set_enabledEib.exit

58:                                               ; preds = %52
  %59 = call noundef i32 @_ZN10colvardeps7disableEi(ptr noundef nonnull align 8 dereferenceable(120) %0, i32 noundef %4), !range !10
  br label %_ZN10colvardeps11set_enabledEib.exit

_ZN10colvardeps11set_enabledEib.exit:             ; preds = %58, %56, %40
  %.0 = phi i1 [ false, %40 ], [ %53, %56 ], [ %53, %58 ]
  ret i1 %.0
}